; Function Attrs: mustprogress uwtable
define hidden void @_ZN7nanogui8CheckBoxC2EPNS_6WidgetERKNSt7__cxx1112basic_stringIcSt11char_traitsIcESaIcEEERKSt8functionIFvbEE(ptr noundef nonnull align 8 dereferenceable(216) %0, ptr noundef %1, ptr noundef nonnull align 8 dereferenceable(32) %2, ptr noundef nonnull align 8 dereferenceable(32) %3) unnamed_addr #0 align 2 personality ptr @__gxx_personality_v0 {
  tail call void @_ZN7nanogui6WidgetC2EPS0_(ptr noundef nonnull align 8 dereferenceable(140) %0, ptr noundef %1)
  store ptr getelementptr inbounds ({ [17 x ptr] }, ptr @_ZTVN7nanogui8CheckBoxE, i64 0, i32 0, i64 2), ptr %0, align 8
  %5 = getelementptr inbounds i8, ptr %0, i64 144
  invoke void @_ZNSt7__cxx1112basic_stringIcSt11char_traitsIcESaIcEEC1ERKS4_(ptr noundef nonnull align 8 dereferenceable(32) %5, ptr noundef nonnull align 8 dereferenceable(32) %2)
          to label %6 unwind label %29

6:                                                ; preds = %4
  %7 = getelementptr inbounds i8, ptr %0, i64 176
  store i8 0, ptr %7, align 8
  %8 = getelementptr inbounds i8, ptr %0, i64 177
  store i8 0, ptr %8, align 1
  %9 = getelementptr inbounds i8, ptr %0, i64 184
  %10 = getelementptr inbounds i8, ptr %0, i64 200
  %11 = getelementptr inbounds i8, ptr %0, i64 208
  %12 = getelementptr inbounds i8, ptr %3, i64 16
  tail call void @llvm.memset.p0.i64(ptr noundef nonnull align 8 dereferenceable(32) %9, i8 0, i64 32, i1 false)
  %13 = load ptr, ptr %12, align 8
  %.not.i.i.not.i = icmp eq ptr %13, null
  br i1 %.not.i.i.not.i, label %_ZNSt8functionIFvbEEC2ERKS1_.exit, label %14

14:                                               ; preds = %6
  %15 = invoke noundef zeroext i1 %13(ptr noundef nonnull align 8 dereferenceable(16) %9, ptr noundef nonnull align 8 dereferenceable(16) %3, i32 noundef 2)
          to label %16 unwind label %20

16:                                               ; preds = %14
  %17 = getelementptr inbounds i8, ptr %3, i64 24
  %18 = load ptr, ptr %17, align 8
  store ptr %18, ptr %11, align 8
  %19 = load ptr, ptr %12, align 8
  store ptr %19, ptr %10, align 8
  br label %_ZNSt8functionIFvbEEC2ERKS1_.exit

20:                                               ; preds = %14
  %21 = landingpad { ptr, i32 }
          cleanup
  %22 = load ptr, ptr %10, align 8
  %.not.i.i = icmp eq ptr %22, null
  br i1 %.not.i.i, label %.body, label %23

23:                                               ; preds = %20
  %24 = invoke noundef zeroext i1 %22(ptr noundef nonnull align 8 dereferenceable(16) %9, ptr noundef nonnull align 8 dereferenceable(16) %9, i32 noundef 3)
          to label %.body unwind label %25

25:                                               ; preds = %23
  %26 = landingpad { ptr, i32 }
          catch ptr null
  %27 = extractvalue { ptr, i32 } %26, 0
  tail call void @__clang_call_terminate(ptr %27) #10
  unreachable

_ZNSt8functionIFvbEEC2ERKS1_.exit:                ; preds = %16, %6
  %28 = getelementptr inbounds i8, ptr %0, i64 132
  store float 0x3FF3333340000000, ptr %28, align 4
  ret void

29:                                               ; preds = %4
  %30 = landingpad { ptr, i32 }
          cleanup
  br label %31

.body:                                            ; preds = %20, %23
  tail call void @_ZNSt7__cxx1112basic_stringIcSt11char_traitsIcESaIcEED1Ev(ptr noundef nonnull align 8 dereferenceable(32) %5) #11
  br label %31

31:                                               ; preds = %.body, %29
  %.pn = phi { ptr, i32 } [ %21, %.body ], [ %30, %29 ]
  tail call void @_ZN7nanogui6WidgetD2Ev(ptr noundef nonnull align 8 dereferenceable(140) %0) #11
  resume { ptr, i32 } %.pn
}